(dp1
S'files'
p2
(dp3
S'blog_urls'
p4
(dp5
S'index'
p6
(dp7
S'html_filename'
p8
S'blog_urls.html'
p9
sS'name'
p10
S'blog/urls'
p11
sS'nums'
p12
ccopy_reg
_reconstructor
p13
(ccoverage.results
Numbers
p14
c__builtin__
object
p15
NtRp16
(dp17
S'n_files'
p18
I1
sS'n_branches'
p19
I0
sS'n_statements'
p20
I2
sS'n_excluded'
p21
I0
sS'n_partial_branches'
p22
I0
sS'n_missing'
p23
I2
sS'n_missing_branches'
p24
I0
sbssS'hash'
p25
S'\xa8\xa3\xb8D\x05O\x15D\xe6l,\x809\xc7\x0b\xca'
p26
ssS'onbike_urls'
p27
(dp28
g6
(dp29
g8
S'onbike_urls.html'
p30
sg10
S'onbike/urls'
p31
sg12
g13
(g14
g15
NtRp32
(dp33
g18
I1
sg19
I0
sg20
I8
sg21
I0
sg22
I0
sg23
I8
sg24
I0
sbssg25
S'\x17%\x08\x03\x14\x1c\xa3\xab0\xa7\xfd\xf1qlV\xfe'
p34
ssS'blog_tests'
p35
(dp36
g6
(dp37
g8
S'blog_tests.html'
p38
sg10
S'blog/tests'
p39
sg12
g13
(g14
g15
NtRp40
(dp41
g18
I1
sg19
I0
sg20
I4
sg21
I0
sg22
I0
sg23
I0
sg24
I0
sbssg25
S'\xe5\xc7X\x04rgg\x8a\x08\x14\xaa\xc0@\xc2\x8b\x97'
p42
ssS'blog_forms'
p43
(dp44
g6
(dp45
g8
S'blog_forms.html'
p46
sg10
S'blog/forms'
p47
sg12
g13
(g14
g15
NtRp48
(dp49
g18
I1
sg19
I0
sg20
I6
sg21
I0
sg22
I0
sg23
I6
sg24
I0
sbssg25
S'=1\xebA_\xdbx\xb1\xfe\x0f*\xc2\x89\xdf\xffH'
p50
ssS'manage'
p51
(dp52
g6
(dp53
g8
S'manage.html'
p54
sg10
g51
sg12
g13
(g14
g15
NtRp55
(dp56
g18
I1
sg19
I0
sg20
I6
sg21
I0
sg22
I0
sg23
I0
sg24
I0
sbssg25
S'\xc9\xf1\xc2\xef\xc1\xf5\xa2z\xc1"\xf4\x14}?\x1fx'
p57
ssS'blog_views'
p58
(dp59
g6
(dp60
g8
S'blog_views.html'
p61
sg10
S'blog/views'
p62
sg12
g13
(g14
g15
NtRp63
(dp64
g18
I1
sg19
I0
sg20
I35
sg21
I0
sg22
I0
sg23
I35
sg24
I0
sbssg25
S' \xa9&\xe1m\x1d4+\x81\x8d\xf6\x8fe\xc7\xf0h'
p65
ssS'developers___init__'
p66
(dp67
g6
(dp68
g8
S'developers___init__.html'
p69
sg10
S'developers/__init__'
p70
sg12
g13
(g14
g15
NtRp71
(dp72
g18
I1
sg19
I0
sg20
I0
sg21
I0
sg22
I0
sg23
I0
sg24
I0
sbssg25
S'\xca\xf5\x9f\x7f\x88\xdfa\x831|T\x1d\xbc}\xa5v'
p73
ssS'onbike___init__'
p74
(dp75
g6
(dp76
g8
S'onbike___init__.html'
p77
sg10
S'onbike/__init__'
p78
sg12
g13
(g14
g15
NtRp79
(dp80
g18
I1
sg19
I0
sg20
I0
sg21
I0
sg22
I0
sg23
I0
sg24
I0
sbssg25
S'\xca\xf5\x9f\x7f\x88\xdfa\x831|T\x1d\xbc}\xa5v'
p81
ssS'developers_models'
p82
(dp83
g6
(dp84
g8
S'developers_models.html'
p85
sg10
S'developers/models'
p86
sg12
g13
(g14
g15
NtRp87
(dp88
g18
I1
sg19
I0
sg20
I1
sg21
I0
sg22
I0
sg23
I0
sg24
I0
sbssg25
S'\xd5M\xc7\x8c\x14P\xcc\xf0D\xe4\x95\xf6\x03`\xf1a'
p89
ssS'account_backends_twitter'
p90
(dp91
g6
(dp92
g8
S'account_backends_twitter.html'
p93
sg10
S'account/backends/twitter'
p94
sg12
g13
(g14
g15
NtRp95
(dp96
g18
I1
sg19
I0
sg20
I40
sg21
I0
sg22
I0
sg23
I40
sg24
I0
sbssg25
S'\xe2\x81\xe4\x96\x1c.z:\xba\xc9!t\x1f\xf7j\x80'
p97
ssS'account_tests'
p98
(dp99
g6
(dp100
g8
S'account_tests.html'
p101
sg10
S'account/tests'
p102
sg12
g13
(g14
g15
NtRp103
(dp104
g18
I1
sg19
I0
sg20
I4
sg21
I0
sg22
I0
sg23
I0
sg24
I0
sbssg25
S'\xe5\xc7X\x04rgg\x8a\x08\x14\xaa\xc0@\xc2\x8b\x97'
p105
ssS'tmp_parse_xml'
p106
(dp107
g6
(dp108
g8
S'tmp_parse_xml.html'
p109
sg10
S'tmp/parse_xml'
p110
sg12
g13
(g14
g15
NtRp111
(dp112
g18
I1
sg19
I0
sg20
I48
sg21
I0
sg22
I0
sg23
I48
sg24
I0
sbssg25
S'\x86\xdc\xa2\xccb|\xca\x9fdMN\xb3\xb7\xe4\x06\xd3'
p113
ssS'api_urls'
p114
(dp115
g6
(dp116
g8
S'api_urls.html'
p117
sg10
S'api/urls'
p118
sg12
g13
(g14
g15
NtRp119
(dp120
g18
I1
sg19
I0
sg20
I3
sg21
I0
sg22
I0
sg23
I3
sg24
I0
sbssg25
S'R@\xfc\xcfo)\xfa\xa1\x9d\xda\xba\x1c\xd7\x90\xc9\xf2'
p121
ssS'__init__'
p122
(dp123
g6
(dp124
g8
S'__init__.html'
p125
sg10
g122
sg12
g13
(g14
g15
NtRp126
(dp127
g18
I1
sg19
I0
sg20
I0
sg21
I0
sg22
I0
sg23
I0
sg24
I0
sbssg25
S'\xca\xf5\x9f\x7f\x88\xdfa\x831|T\x1d\xbc}\xa5v'
p128
ssS'account_templatetags___init__'
p129
(dp130
g6
(dp131
g8
S'account_templatetags___init__.html'
p132
sg10
S'account/templatetags/__init__'
p133
sg12
g13
(g14
g15
NtRp134
(dp135
g18
I1
sg19
I0
sg20
I0
sg21
I0
sg22
I0
sg23
I0
sg24
I0
sbssg25
S'\xe5P\x11)^\xf4>1D.\x0e\x0b\xa1\xf8[+'
p136
ssS'map_urls'
p137
(dp138
g6
(dp139
g8
S'map_urls.html'
p140
sg10
S'map/urls'
p141
sg12
g13
(g14
g15
NtRp142
(dp143
g18
I1
sg19
I0
sg20
I3
sg21
I0
sg22
I0
sg23
I3
sg24
I0
sbssg25
S'\xd6m\xe2:Y{\x99\xcd\xbd\xf9\x85\xbeN\x9eK\xf6'
p144
ssS'onbike_views'
p145
(dp146
g6
(dp147
g8
S'onbike_views.html'
p148
sg10
S'onbike/views'
p149
sg12
g13
(g14
g15
NtRp150
(dp151
g18
I1
sg19
I0
sg20
I100
sg21
I0
sg22
I0
sg23
I100
sg24
I0
sbssg25
S'\x1d\xeb\xe8F\xb3\xd2\xd7\x0b\x17-e\xaa\xfa\xad\xe9\x8c'
p152
ssS'map_views'
p153
(dp154
g6
(dp155
g8
S'map_views.html'
p156
sg10
S'map/views'
p157
sg12
g13
(g14
g15
NtRp158
(dp159
g18
I1
sg19
I0
sg20
I108
sg21
I0
sg22
I0
sg23
I108
sg24
I0
sbssg25
S'\xbc\xeb\xdd\x9a\xc9\xa1i\xbb\x1f\x9b\xa58f\xc7\xf6w'
p160
ssS'blog_models'
p161
(dp162
g6
(dp163
g8
S'blog_models.html'
p164
sg10
S'blog/models'
p165
sg12
g13
(g14
g15
NtRp166
(dp167
g18
I1
sg19
I0
sg20
I26
sg21
I0
sg22
I0
sg23
I10
sg24
I0
sbssg25
S'\xa8\x93\xe6\xecDk{8\xa0jD\xf0\x8dt\x0c\x81'
p168
ssS'map_models'
p169
(dp170
g6
(dp171
g8
S'map_models.html'
p172
sg10
S'map/models'
p173
sg12
g13
(g14
g15
NtRp174
(dp175
g18
I1
sg19
I0
sg20
I230
sg21
I0
sg22
I0
sg23
I132
sg24
I0
sbssg25
S'\xe7\xcd\xe1n\x1a\xb6i\xc8\x19\x89\xa4\xe1\xfb_\xefp'
p176
ssS'api_views'
p177
(dp178
g6
(dp179
g8
S'api_views.html'
p180
sg10
S'api/views'
p181
sg12
g13
(g14
g15
NtRp182
(dp183
g18
I1
sg19
I0
sg20
I219
sg21
I0
sg22
I0
sg23
I219
sg24
I0
sbssg25
S':\xec>\x82\x80\x91\xab\xd5\xa6\x05\x13\x03o\xce\x91r'
p184
ssS'onbike_settings'
p185
(dp186
g6
(dp187
g8
S'onbike_settings.html'
p188
sg10
S'onbike/settings'
p189
sg12
g13
(g14
g15
NtRp190
(dp191
g18
I1
sg19
I0
sg20
I38
sg21
I0
sg22
I0
sg23
I2
sg24
I0
sbssg25
S'\x9f( \xfe\xfew4o\xf3\x1a\x80\xa2\x02\x99\xb1\r'
p192
ssS'api___init__'
p193
(dp194
g6
(dp195
g8
S'api___init__.html'
p196
sg10
S'api/__init__'
p197
sg12
g13
(g14
g15
NtRp198
(dp199
g18
I1
sg19
I0
sg20
I0
sg21
I0
sg22
I0
sg23
I0
sg24
I0
sbssg25
S'\xca\xf5\x9f\x7f\x88\xdfa\x831|T\x1d\xbc}\xa5v'
p200
ssS'account_admin'
p201
(dp202
g6
(dp203
g8
S'account_admin.html'
p204
sg10
S'account/admin'
p205
sg12
g13
(g14
g15
NtRp206
(dp207
g18
I1
sg19
I0
sg20
I5
sg21
I0
sg22
I0
sg23
I0
sg24
I0
sbssg25
S'\xb5\x0em\xa0j\xf0/\xdf\r*\xc0u\x85\x02\x17b'
p208
ssS'manager_urls'
p209
(dp210
g6
(dp211
g8
S'manager_urls.html'
p212
sg10
S'manager/urls'
p213
sg12
g13
(g14
g15
NtRp214
(dp215
g18
I1
sg19
I0
sg20
I3
sg21
I0
sg22
I0
sg23
I3
sg24
I0
sbssg25
S'\xc7\xcap\xa2A^v\xda\xc3\xaf\x82\xec\xe3\xf2\xcc\x04'
p216
ssS'account___init__'
p217
(dp218
g6
(dp219
g8
S'account___init__.html'
p220
sg10
S'account/__init__'
p221
sg12
g13
(g14
g15
NtRp222
(dp223
g18
I1
sg19
I0
sg20
I0
sg21
I0
sg22
I0
sg23
I0
sg24
I0
sbssg25
S'\xca\xf5\x9f\x7f\x88\xdfa\x831|T\x1d\xbc}\xa5v'
p224
ssS'manager_context_processor'
p225
(dp226
g6
(dp227
g8
S'manager_context_processor.html'
p228
sg10
S'manager/context_processor'
p229
sg12
g13
(g14
g15
NtRp230
(dp231
g18
I1
sg19
I0
sg20
I13
sg21
I0
sg22
I0
sg23
I13
sg24
I0
sbssg25
S'\xfcG\xfb\xfe7\xcdwC\xd1\xdc\xb8\x18:f\xa8\xba'
p232
ssS'onbike_wsgi'
p233
(dp234
g6
(dp235
g8
S'onbike_wsgi.html'
p236
sg10
S'onbike/wsgi'
p237
sg12
g13
(g14
g15
NtRp238
(dp239
g18
I1
sg19
I0
sg20
I4
sg21
I0
sg22
I0
sg23
I4
sg24
I0
sbssg25
S'\xec\xcd\x944\x08_\xb9\x12\xae\x11qXvQ\x8c)'
p240
ssS'api_models'
p241
(dp242
g6
(dp243
g8
S'api_models.html'
p244
sg10
S'api/models'
p245
sg12
g13
(g14
g15
NtRp246
(dp247
g18
I1
sg19
I0
sg20
I24
sg21
I0
sg22
I0
sg23
I2
sg24
I0
sbssg25
S"k\xb7\xb8\x90'\xfb\xfd\xa3\x85\xa4J`ij\xde("
p248
ssS'account_backends__twitter_oauthtwitter'
p249
(dp250
g6
(dp251
g8
S'account_backends__twitter_oauthtwitter.html'
p252
sg10
S'account/backends/_twitter/oauthtwitter'
p253
sg12
g13
(g14
g15
NtRp254
(dp255
g18
I1
sg19
I0
sg20
I91
sg21
I0
sg22
I0
sg23
I91
sg24
I0
sbssg25
S'\xbcm\xc6!*\xd0e\x07\xbev\xd1%\xfe\xa2Y\xf3'
p256
ssS'map_translit'
p257
(dp258
g6
(dp259
g8
S'map_translit.html'
p260
sg10
S'map/translit'
p261
sg12
g13
(g14
g15
NtRp262
(dp263
g18
I1
sg19
I0
sg20
I13
sg21
I0
sg22
I0
sg23
I11
sg24
I0
sbssg25
S'\x81#\x9bC\x82\xb5\x8e\x16\x00\x1c\x8cQ\xcd\xf6\xcb\xbf'
p264
ssS'account_backends_facebook'
p265
(dp266
g6
(dp267
g8
S'account_backends_facebook.html'
p268
sg10
S'account/backends/facebook'
p269
sg12
g13
(g14
g15
NtRp270
(dp271
g18
I1
sg19
I0
sg20
I36
sg21
I0
sg22
I0
sg23
I36
sg24
I0
sbssg25
S'\xbdoYCR\xab\xf4\xfa\x1a9D?g\x85f\x81'
p272
ssS'onbike_settings_local'
p273
(dp274
g6
(dp275
g8
S'onbike_settings_local.html'
p276
sg10
S'onbike/settings_local'
p277
sg12
g13
(g14
g15
NtRp278
(dp279
g18
I1
sg19
I0
sg20
I1
sg21
I0
sg22
I0
sg23
I0
sg24
I0
sbssg25
S'(\x17\x88\x9b)\r\xbd\x01\x90\x08\xde\xf1\xc9\xf2\xd0\xbc'
p280
ssS'map_admin'
p281
(dp282
g6
(dp283
g8
S'map_admin.html'
p284
sg10
S'map/admin'
p285
sg12
g13
(g14
g15
NtRp286
(dp287
g18
I1
sg19
I0
sg20
I3
sg21
I0
sg22
I0
sg23
I0
sg24
I0
sbssg25
S'\x02\xc21\xd9\xc7\xc0\xf3\xd5{\xfc\x9b\x9bg&\xe9\x87'
p288
ssS'tmp___init__'
p289
(dp290
g6
(dp291
g8
S'tmp___init__.html'
p292
sg10
S'tmp/__init__'
p293
sg12
g13
(g14
g15
NtRp294
(dp295
g18
I1
sg19
I0
sg20
I0
sg21
I0
sg22
I0
sg23
I0
sg24
I0
sbssg25
S'\xe5P\x11)^\xf4>1D.\x0e\x0b\xa1\xf8[+'
p296
ssS'account_urls'
p297
(dp298
g6
(dp299
g8
S'account_urls.html'
p300
sg10
S'account/urls'
p301
sg12
g13
(g14
g15
NtRp302
(dp303
g18
I1
sg19
I0
sg20
I3
sg21
I0
sg22
I0
sg23
I3
sg24
I0
sbssg25
S'\xd3M\xdd\xdf)\xc8Q\xd6\xd6C\x01\x95\x91\xe7&\xa4'
p304
ssS'account_models'
p305
(dp306
g6
(dp307
g8
S'account_models.html'
p308
sg10
S'account/models'
p309
sg12
g13
(g14
g15
NtRp310
(dp311
g18
I1
sg19
I0
sg20
I17
sg21
I0
sg22
I0
sg23
I2
sg24
I0
sbssg25
S'P\xbae\xecw\x10\x9dn\x83\x16\xd1\x95\xe7TZ\x1f'
p312
ssS'account_backends__twitter___init__'
p313
(dp314
g6
(dp315
g8
S'account_backends__twitter___init__.html'
p316
sg10
S'account/backends/_twitter/__init__'
p317
sg12
g13
(g14
g15
NtRp318
(dp319
g18
I1
sg19
I0
sg20
I0
sg21
I0
sg22
I0
sg23
I0
sg24
I0
sbssg25
S'\xe5P\x11)^\xf4>1D.\x0e\x0b\xa1\xf8[+'
p320
ssS'map___init__'
p321
(dp322
g6
(dp323
g8
S'map___init__.html'
p324
sg10
S'map/__init__'
p325
sg12
g13
(g14
g15
NtRp326
(dp327
g18
I1
sg19
I0
sg20
I0
sg21
I0
sg22
I0
sg23
I0
sg24
I0
sbssg25
S'\xca\xf5\x9f\x7f\x88\xdfa\x831|T\x1d\xbc}\xa5v'
p328
ssS'account_context_processors'
p329
(dp330
g6
(dp331
g8
S'account_context_processors.html'
p332
sg10
S'account/context_processors'
p333
sg12
g13
(g14
g15
NtRp334
(dp335
g18
I1
sg19
I0
sg20
I12
sg21
I0
sg22
I0
sg23
I12
sg24
I0
sbssg25
S'B\xffA\xc7w\xdc\x9c\xa6\xd0pw\x96\xdc\x9d\xfa\xba'
p336
ssS'manager_forms'
p337
(dp338
g6
(dp339
g8
S'manager_forms.html'
p340
sg10
S'manager/forms'
p341
sg12
g13
(g14
g15
NtRp342
(dp343
g18
I1
sg19
I0
sg20
I51
sg21
I0
sg22
I0
sg23
I51
sg24
I0
sbssg25
S'/vH\xc3\xda0\x19\nq;@Ht\x81\x13\xae'
p344
ssS'account_backends_vk'
p345
(dp346
g6
(dp347
g8
S'account_backends_vk.html'
p348
sg10
S'account/backends/vk'
p349
sg12
g13
(g14
g15
NtRp350
(dp351
g18
I1
sg19
I0
sg20
I37
sg21
I0
sg22
I0
sg23
I37
sg24
I0
sbssg25
S'`\x05\xc6\xab>\xb4?\xab\xa5\xd0,\x01\x1db\xf6\xbe'
p352
ssS'manager_models'
p353
(dp354
g6
(dp355
g8
S'manager_models.html'
p356
sg10
S'manager/models'
p357
sg12
g13
(g14
g15
NtRp358
(dp359
g18
I1
sg19
I0
sg20
I5
sg21
I0
sg22
I0
sg23
I0
sg24
I0
sbssg25
S'RO2=\xf3rBOj\xba\xf3\xd9\xce3$\xa4'
p360
ssS'account_backends___init__'
p361
(dp362
g6
(dp363
g8
S'account_backends___init__.html'
p364
sg10
S'account/backends/__init__'
p365
sg12
g13
(g14
g15
NtRp366
(dp367
g18
I1
sg19
I0
sg20
I13
sg21
I0
sg22
I0
sg23
I13
sg24
I0
sbssg25
S'\xa1j\xc3C5\x0f\xd9d\x14\xee\x9e\xb2\x07[\x07V'
p368
ssS'manager___init__'
p369
(dp370
g6
(dp371
g8
S'manager___init__.html'
p372
sg10
S'manager/__init__'
p373
sg12
g13
(g14
g15
NtRp374
(dp375
g18
I1
sg19
I0
sg20
I0
sg21
I0
sg22
I0
sg23
I0
sg24
I0
sbssg25
S'\xca\xf5\x9f\x7f\x88\xdfa\x831|T\x1d\xbc}\xa5v'
p376
ssS'account_auth_backends'
p377
(dp378
g6
(dp379
g8
S'account_auth_backends.html'
p380
sg10
S'account/auth_backends'
p381
sg12
g13
(g14
g15
NtRp382
(dp383
g18
I1
sg19
I0
sg20
I14
sg21
I0
sg22
I0
sg23
I14
sg24
I0
sbssg25
S'\x07_(\xf7\xd3=\xc8{\xe3\xbf\x8a[C\xec^\xfa'
p384
ssS'blog___init__'
p385
(dp386
g6
(dp387
g8
S'blog___init__.html'
p388
sg10
S'blog/__init__'
p389
sg12
g13
(g14
g15
NtRp390
(dp391
g18
I1
sg19
I0
sg20
I0
sg21
I0
sg22
I0
sg23
I0
sg24
I0
sbssg25
S'\xca\xf5\x9f\x7f\x88\xdfa\x831|T\x1d\xbc}\xa5v'
p392
ssS'manager_tests'
p393
(dp394
g6
(dp395
g8
S'manager_tests.html'
p396
sg10
S'manager/tests'
p397
sg12
g13
(g14
g15
NtRp398
(dp399
g18
I1
sg19
I0
sg20
I4
sg21
I0
sg22
I0
sg23
I0
sg24
I0
sbssg25
S'\xe5\xc7X\x04rgg\x8a\x08\x14\xaa\xc0@\xc2\x8b\x97'
p400
ssS'api_utils'
p401
(dp402
g6
(dp403
g8
S'api_utils.html'
p404
sg10
S'api/utils'
p405
sg12
g13
(g14
g15
NtRp406
(dp407
g18
I1
sg19
I0
sg20
I45
sg21
I0
sg22
I0
sg23
I45
sg24
I0
sbssg25
S'\xaey^\x88:~0\xc7S\xbd\xc5\x8d\xa4\xd6\x87_'
p408
ssS'manager_views'
p409
(dp410
g6
(dp411
g8
S'manager_views.html'
p412
sg10
S'manager/views'
p413
sg12
g13
(g14
g15
NtRp414
(dp415
g18
I1
sg19
I0
sg20
I375
sg21
I0
sg22
I0
sg23
I375
sg24
I0
sbssg25
S"\xa6\xdc\x8d\x8cd\xa6\xcb\xa4\xbf3\x11\r\xf2\xed'M"
p416
ssS'developers_urls'
p417
(dp418
g6
(dp419
g8
S'developers_urls.html'
p420
sg10
S'developers/urls'
p421
sg12
g13
(g14
g15
NtRp422
(dp423
g18
I1
sg19
I0
sg20
I2
sg21
I0
sg22
I0
sg23
I2
sg24
I0
sbssg25
S'0sLX\xaa\xb8\x86\xd5?O\x80I{\xb5\xccA'
p424
ssS'developers_tests'
p425
(dp426
g6
(dp427
g8
S'developers_tests.html'
p428
sg10
S'developers/tests'
p429
sg12
g13
(g14
g15
NtRp430
(dp431
g18
I1
sg19
I0
sg20
I4
sg21
I0
sg22
I0
sg23
I0
sg24
I0
sbssg25
S'\xe5\xc7X\x04rgg\x8a\x08\x14\xaa\xc0@\xc2\x8b\x97'
p432
ssS'map_tests'
p433
(dp434
g6
(dp435
g8
S'map_tests.html'
p436
sg10
S'map/tests'
p437
sg12
g13
(g14
g15
NtRp438
(dp439
g18
I1
sg19
I0
sg20
I4
sg21
I0
sg22
I0
sg23
I0
sg24
I0
sbssg25
S'\xe5\xc7X\x04rgg\x8a\x08\x14\xaa\xc0@\xc2\x8b\x97'
p440
ssS'api_test'
p441
(dp442
g6
(dp443
g8
S'api_test.html'
p444
sg10
S'api/test'
p445
sg12
g13
(g14
g15
NtRp446
(dp447
g18
I1
sg19
I0
sg20
I68
sg21
I0
sg22
I0
sg23
I4
sg24
I0
sbssg25
S'2\xdc{\xfao@\x8a\x05o+\xa7\xd4\x86\xf3u\xf8'
p448
ssS'account_templatetags_login'
p449
(dp450
g6
(dp451
g8
S'account_templatetags_login.html'
p452
sg10
S'account/templatetags/login'
p453
sg12
g13
(g14
g15
NtRp454
(dp455
g18
I1
sg19
I0
sg20
I11
sg21
I0
sg22
I0
sg23
I11
sg24
I0
sbssg25
S'\xc2\x95/q`\x9f-\xc2\x96\x14\xbe\xdd\xa4\x9a\x04\xb9'
p456
ssS'account_backends__twitter_twitter'
p457
(dp458
g6
(dp459
g8
S'account_backends__twitter_twitter.html'
p460
sg10
S'account/backends/_twitter/twitter'
p461
sg12
g13
(g14
g15
NtRp462
(dp463
g18
I1
sg19
I0
sg20
I1761
sg21
I0
sg22
I0
sg23
I1761
sg24
I0
sbssg25
S'\x8aW\x87\xf6\xf5\xbcb\x17\x86\x1d\x07\xeb\x88\xcb`K'
p464
ssS'developers_views'
p465
(dp466
g6
(dp467
g8
S'developers_views.html'
p468
sg10
S'developers/views'
p469
sg12
g13
(g14
g15
NtRp470
(dp471
g18
I1
sg19
I0
sg20
I51
sg21
I0
sg22
I0
sg23
I51
sg24
I0
sbssg25
S'\xb1\xcd\x12\x87\xcd\xd0w_q\xc9\x7f_\xb9\xf5\xb0\x80'
p472
ssS'account_views'
p473
(dp474
g6
(dp475
g8
S'account_views.html'
p476
sg10
S'account/views'
p477
sg12
g13
(g14
g15
NtRp478
(dp479
g18
I1
sg19
I0
sg20
I65
sg21
I0
sg22
I0
sg23
I65
sg24
I0
sbssg25
S'\xe6A\xd5\xe9\xa2\xc7%\xb5\x88\xe4q\xe3~\x0f\x107'
p480
sssS'version'
p481
S'3.7.1'
p482
sS'settings'
p483
S'\x98\xa8x\xfe"r\xb5K\x98\xb1N\\\x99\x9e\xf3\xe5'
p484
sS'format'
p485
I1
s.